; Function Attrs: null_pointer_is_valid sspstrong uwtable
define internal noundef zeroext i1 @cosine_seek_read(ptr noundef readonly captures(none) %0, i64 noundef %1, ptr noundef %2, ptr noundef %3, ptr noundef %4) #0 {
  %6 = alloca [240 x i8], align 16
  call void @llvm.lifetime.start.p0(i64 240, ptr nonnull %6) #9
  %7 = getelementptr inbounds nuw i8, ptr %0, i64 8
  %8 = load ptr, ptr %7, align 8
  %9 = tail call i64 @file_seek(ptr noundef %8, i64 noundef %1, i32 noundef 0, ptr noundef %3)
  %10 = icmp eq i64 %9, -1
  br i1 %10, label %21, label %11

11:                                               ; preds = %5
  %12 = load ptr, ptr %7, align 8
  %13 = call ptr @file_gets(ptr noundef nonnull %6, i32 noundef 240, ptr noundef %12)
  %14 = icmp eq ptr %13, null
  %15 = load ptr, ptr %7, align 8
  br i1 %14, label %16, label %19

16:                                               ; preds = %11
  %17 = call i32 @file_error(ptr noundef %15, ptr noundef %4)
  %18 = icmp eq i32 %17, 0
  %spec.select = select i1 %18, i32 -12, i32 %17
  store i32 %spec.select, ptr %3, align 4
  br label %21

19:                                               ; preds = %11
  %20 = call fastcc zeroext i1 @parse_cosine_packet(ptr noundef %15, ptr noundef %2, ptr noundef nonnull %6, ptr noundef %3, ptr noundef %4)
  br label %21

21:                                               ; preds = %5, %19, %16
  %.0 = phi i1 [ false, %16 ], [ %20, %19 ], [ false, %5 ]
  call void @llvm.lifetime.end.p0(i64 240, ptr nonnull %6) #9
  ret i1 %.0
}